; Function Attrs: fn_ret_thunk_extern nounwind null_pointer_is_valid
define internal noundef i64 @line_show(ptr nocapture noundef readonly %0, ptr nocapture readnone %1, ptr nocapture noundef writeonly %2) #0 align 16 {
  %4 = getelementptr inbounds i8, ptr %0, i64 120
  %5 = load ptr, ptr %4, align 8
  %6 = getelementptr inbounds i8, ptr %5, i64 256
  tail call void @mutex_lock(ptr noundef %6) #19
  %7 = getelementptr inbounds i8, ptr %5, i64 432
  %8 = load ptr, ptr %7, align 8
  %9 = icmp eq ptr %8, null
  br i1 %9, label %uart_get_info.exit, label %10

10:                                               ; preds = %3
  %11 = getelementptr inbounds i8, ptr %8, i64 316
  %12 = load i32, ptr %11, align 4
  %13 = getelementptr inbounds i8, ptr %5, i64 352
  %14 = load i32, ptr %13, align 8
  %15 = zext i32 %14 to i64
  %16 = tail call i32 @jiffies_to_msecs(i64 noundef %15) #19
  %17 = getelementptr inbounds i8, ptr %5, i64 356
  %18 = load i32, ptr %17, align 4
  %19 = icmp eq i32 %18, 65535
  br i1 %19, label %uart_get_info.exit, label %20

20:                                               ; preds = %10
  %21 = zext i32 %18 to i64
  %22 = tail call i32 @jiffies_to_msecs(i64 noundef %21) #19
  br label %uart_get_info.exit

uart_get_info.exit:                               ; preds = %10, %20, %3
  %.sroa.5.0 = phi i32 [ 0, %3 ], [ %12, %20 ], [ %12, %10 ]
  tail call void @mutex_unlock(ptr noundef %6) #19
  %23 = tail call i32 (ptr, ptr, ...) @sprintf(ptr noundef %2, ptr noundef nonnull dereferenceable(1) @.str.54, i32 noundef %.sroa.5.0) #19
  %24 = sext i32 %23 to i64
  ret i64 %24
}